target datalayout = "e-m:e-p270:32:32-p271:32:32-p272:64:64-i64:64-i128:128-f80:128-n8:16:32:64-S128"
target triple = "x86_64-pc-linux-gnu"

%struct.RelFileLocatorBackend = type { %struct.RelFileLocator, i32 }
%struct.RelFileLocator = type { i32, i32, i32 }
%struct.SharedInvalSmgrMsg = type { i8, i8, i16, %struct.RelFileLocator }
%union.SharedInvalidationMessage = type { %struct.SharedInvalSmgrMsg }

; Function Attrs: nounwind uwtable
define dso_local void @CacheInvalidateSmgr(i64 %0, i64 %1) #0 {
  %3 = alloca %struct.RelFileLocatorBackend, align 4
  %4 = alloca %union.SharedInvalidationMessage, align 4
  %5 = getelementptr inbounds nuw { i64, i64 }, ptr %3, i32 0, i32 0
  store i64 %0, ptr %5, align 4
  %6 = getelementptr inbounds nuw { i64, i64 }, ptr %3, i32 0, i32 1
  store i64 %1, ptr %6, align 4
  call void @llvm.lifetime.start.p0(i64 16, ptr %4) #7
  %7 = getelementptr inbounds nuw %struct.SharedInvalSmgrMsg, ptr %4, i32 0, i32 0
  store i8 -3, ptr %7, align 4
  %8 = getelementptr inbounds nuw %struct.RelFileLocatorBackend, ptr %3, i32 0, i32 1
  %9 = load i32, ptr %8, align 4
  %10 = ashr i32 %9, 16
  %11 = trunc i32 %10 to i8
  %12 = getelementptr inbounds nuw %struct.SharedInvalSmgrMsg, ptr %4, i32 0, i32 1
  store i8 %11, ptr %12, align 1
  %13 = getelementptr inbounds nuw %struct.RelFileLocatorBackend, ptr %3, i32 0, i32 1
  %14 = load i32, ptr %13, align 4
  %15 = and i32 %14, 65535
  %16 = trunc i32 %15 to i16
  %17 = getelementptr inbounds nuw %struct.SharedInvalSmgrMsg, ptr %4, i32 0, i32 2
  store i16 %16, ptr %17, align 2
  %18 = getelementptr inbounds nuw %struct.SharedInvalSmgrMsg, ptr %4, i32 0, i32 3
  %19 = getelementptr inbounds nuw %struct.RelFileLocatorBackend, ptr %3, i32 0, i32 0
  call void @llvm.memcpy.p0.p0.i64(ptr align 4 %18, ptr align 4 %19, i64 12, i1 false)
  br label %20

20:                                               ; preds = %2
  br label %21

21:                                               ; preds = %20
  br label %22

22:                                               ; preds = %21
  call void @SendSharedInvalidMessages(ptr noundef %4, i32 noundef 1)
  call void @llvm.lifetime.end.p0(i64 16, ptr %4) #7
  ret void
}