; Function Attrs: nounwind uwtable
define dso_local void @CacheInvalidateSmgr(i64 %0, i64 %1) local_unnamed_addr #0 {
  %3 = alloca %union.SharedInvalidationMessage, align 4
  call void @llvm.lifetime.start.p0(i64 16, ptr nonnull %3) #7
  store i8 -3, ptr %3, align 4
  %.sroa.2.12.extract.shift = lshr i64 %1, 32
  %.sroa.2.12.extract.trunc = trunc i64 %.sroa.2.12.extract.shift to i16
  %4 = lshr i64 %1, 48
  %5 = trunc i64 %4 to i8
  %6 = getelementptr inbounds nuw i8, ptr %3, i64 1
  store i8 %5, ptr %6, align 1
  %7 = getelementptr inbounds nuw i8, ptr %3, i64 2
  store i16 %.sroa.2.12.extract.trunc, ptr %7, align 2
  %8 = getelementptr inbounds nuw i8, ptr %3, i64 4
  store i64 %0, ptr %8, align 4
  %.sroa.2.0..sroa_idx = getelementptr inbounds nuw i8, ptr %3, i64 12
  %.sroa.2.0.extract.trunc = trunc i64 %1 to i32
  store i32 %.sroa.2.0.extract.trunc, ptr %.sroa.2.0..sroa_idx, align 4
  call void @SendSharedInvalidMessages(ptr noundef nonnull %3, i32 noundef 1) #7
  call void @llvm.lifetime.end.p0(i64 16, ptr nonnull %3) #7
  ret void
}